; Function Attrs: mustprogress nounwind uwtable
define dso_local void @_ZN5cmsys17SystemInformationD2Ev(ptr noundef nonnull readonly align 8 captures(none) dereferenceable(8) %0) unnamed_addr #6 align 2 {
  %2 = load ptr, ptr %0, align 8, !tbaa !4
  %3 = icmp eq ptr %2, null
  br i1 %3, label %5, label %4

4:                                                ; preds = %1
  tail call void @_ZN5cmsys31SystemInformationImplementationD2Ev(ptr noundef nonnull align 8 dereferenceable(457) %2) #34
  tail call void @_ZdlPvm(ptr noundef nonnull %2, i64 noundef 464) #33
  br label %5

5:                                                ; preds = %4, %1
  ret void
}